; Function Attrs: nounwind uwtable
define internal ptr @type_assign_version(ptr readnone captures(none) %0, ptr noundef %1) #0 {
  %3 = getelementptr i8, ptr %1, i64 8
  %.val = load ptr, ptr %3, align 8, !tbaa !3
  %4 = getelementptr i8, ptr %.val, i64 168
  %.val.val = load i64, ptr %4, align 8, !tbaa !9
  %5 = and i64 %.val.val, 2147483648
  %.not4 = icmp eq i64 %5, 0
  br i1 %.not4, label %6, label %8

6:                                                ; preds = %2
  %7 = load ptr, ptr @PyExc_TypeError, align 8, !tbaa !22
  tail call void @PyErr_SetString(ptr noundef %7, ptr noundef nonnull @.str.36) #3
  br label %12

8:                                                ; preds = %2
  %9 = tail call i32 @PyUnstable_Type_AssignVersionTag(ptr noundef nonnull %1) #3
  %10 = sext i32 %9 to i64
  %11 = tail call ptr @PyLong_FromLong(i64 noundef %10) #3
  br label %12

12:                                               ; preds = %8, %6
  %.0 = phi ptr [ %11, %8 ], [ null, %6 ]
  ret ptr %.0
}